EXPORTS 
	?$TSS0@?1??_prefix_port_if_needed@@YA?AV?$basic_string@_WU?$char_traits@_W@std@@V?$allocator@_W@2@@std@@AEBV23@@Z@4HA 	 DATA
	??_R0?AV?$_Iosb@H@std@@@8 	 DATA
	??_R0?AV?$basic_ios@DU?$char_traits@D@std@@@std@@@8 	 DATA
	??_R0?AV?$basic_iostream@DU?$char_traits@D@std@@@std@@@8 	 DATA
	??_R0?AV?$basic_istream@DU?$char_traits@D@std@@@std@@@8 	 DATA
	??_R0?AV?$basic_ostream@DU?$char_traits@D@std@@@std@@@8 	 DATA
	??_R0?AV?$basic_streambuf@DU?$char_traits@D@std@@@std@@@8 	 DATA
	??_R0?AV?$basic_stringbuf@DU?$char_traits@D@std@@V?$allocator@D@2@@std@@@8 	 DATA
	??_R0?AV?$basic_stringstream@DU?$char_traits@D@std@@V?$allocator@D@2@@std@@@8 	 DATA
	??_R0?AVIOException@serial@@@8 	 DATA
	??_R0?AVPortNotOpenedException@serial@@@8 	 DATA
	??_R0?AVSerial@serial@@@8 	 DATA
	??_R0?AVSerialException@serial@@@8 	 DATA
	??_R0?AVSerialImpl@Serial@serial@@@8 	 DATA
	??_R0?AVbad_alloc@std@@@8 	 DATA
	??_R0?AVbad_array_new_length@std@@@8 	 DATA
	??_R0?AVexception@std@@@8 	 DATA
	??_R0?AVinvalid_argument@std@@@8 	 DATA
	??_R0?AVios_base@std@@@8 	 DATA
	??_R0?AVlogic_error@std@@@8 	 DATA
	?windows_com_port_prefix@?1??_prefix_port_if_needed@@YA?AV?$basic_string@_WU?$char_traits@_W@std@@V?$allocator@_W@2@@std@@AEBV23@@Z@4V23@A 	 DATA
	??$?6DU?$char_traits@D@std@@V?$allocator@D@1@@std@@YAAEAV?$basic_ostream@DU?$char_traits@D@std@@@0@AEAV10@AEBV?$basic_string@DU?$char_traits@D@std@@V?$allocator@D@2@@0@@Z
	??$?6U?$char_traits@D@std@@@std@@YAAEAV?$basic_ostream@DU?$char_traits@D@std@@@0@AEAV10@PEBD@Z
	??$?8DU?$char_traits@D@std@@V?$allocator@D@1@@std@@YA_NAEBV?$basic_string@DU?$char_traits@D@std@@V?$allocator@D@2@@0@0@Z
	??$?H_WU?$char_traits@_W@std@@V?$allocator@_W@1@@std@@YA?AV?$basic_string@_WU?$char_traits@_W@std@@V?$allocator@_W@2@@0@AEBV10@0@Z
	??$_Allocate@$0BA@U_Default_allocate_traits@std@@$0A@@std@@YAPEAX_K@Z
	??$_Allocate_manually_vector_aligned@U_Default_allocate_traits@std@@@std@@YAPEAX_K@Z
	??$_Construct@PEBD@?$basic_string@_WU?$char_traits@_W@std@@V?$allocator@_W@2@@std@@QEAAXPEBDQEBDUinput_iterator_tag@1@@Z
	??$_Construct_in_place@PEADAEBQEAD@std@@YAXAEAPEADAEBQEAD@Z
	??$_Construct_in_place@PEA_WAEBQEA_W@std@@YAXAEAPEA_WAEBQEA_W@Z
	??$_Copy_backward_memmove@PEAEPEAE@std@@YAPEAEPEAE00@Z
	??$_Copy_memmove@PEAEPEAE@std@@YAPEAEPEAE00@Z
	??$_Deallocate@$0BA@$0A@@std@@YAXPEAX_K@Z
	??$_Destroy_in_place@PEAD@std@@YAXAEAPEAD@Z
	??$_Destroy_in_place@PEA_W@std@@YAXAEAPEA_W@Z
	??$_Destroy_range@V?$allocator@E@std@@@std@@YAXPEAEQEAEAEAV?$allocator@E@0@@Z
	??$_Destroy_range@V?$allocator@UPortInfo@serial@@@std@@@std@@YAXPEAUPortInfo@serial@@QEAU12@AEAV?$allocator@UPortInfo@serial@@@0@@Z
	??$_Destroy_range@V?$allocator@V?$basic_string@DU?$char_traits@D@std@@V?$allocator@D@2@@std@@@std@@@std@@YAXPEAV?$basic_string@DU?$char_traits@D@std@@V?$allocator@D@2@@0@QEAV10@AEAV?$allocator@V?$basic_string@DU?$char_traits@D@std@@V?$allocator@D@2@@std@@@0@@Z
	??$_Emplace_reallocate@AEBUPortInfo@serial@@@?$vector@UPortInfo@serial@@V?$allocator@UPortInfo@serial@@@std@@@std@@QEAAPEAUPortInfo@serial@@QEAU23@AEBU23@@Z
	??$_Emplace_reallocate@V?$basic_string@DU?$char_traits@D@std@@V?$allocator@D@2@@std@@@?$vector@V?$basic_string@DU?$char_traits@D@std@@V?$allocator@D@2@@std@@V?$allocator@V?$basic_string@DU?$char_traits@D@std@@V?$allocator@D@2@@std@@@2@@std@@QEAAPEAV?$basic_string@DU?$char_traits@D@std@@V?$allocator@D@2@@1@QEAV21@$$QEAV21@@Z
	??$_Insert_range@PEAE@?$vector@EV?$allocator@E@std@@@std@@AEAAXV?$_Vector_const_iterator@V?$_Vector_val@U?$_Simple_types@E@std@@@std@@@1@PEAE1Uforward_iterator_tag@1@@Z
	??$_Insert_string@DU?$char_traits@D@std@@_K@std@@YAAEAV?$basic_ostream@DU?$char_traits@D@std@@@0@AEAV10@QEBD_K@Z
	??$_Move_unchecked@PEAEPEAE@std@@YAPEAEPEAE00@Z
	??$_Pocca@V?$allocator@D@std@@@std@@YAXAEAV?$allocator@D@0@AEBV10@@Z
	??$_Pocma@V?$allocator@D@std@@@std@@YAXAEAV?$allocator@D@0@0@Z
	??$_Pocma@V?$allocator@_W@std@@@std@@YAXAEAV?$allocator@_W@0@0@Z
	??$_Reallocate_grow_by@V<lambda_319d5e083f45f90dcdce5dce53cbb275>@@D@?$basic_string@DU?$char_traits@D@std@@V?$allocator@D@2@@std@@AEAAAEAV01@_KV<lambda_319d5e083f45f90dcdce5dce53cbb275>@@D@Z
	??$_Reallocate_grow_by@V<lambda_65e615be2a453ca0576c979606f46740>@@PEBD_K@?$basic_string@DU?$char_traits@D@std@@V?$allocator@D@2@@std@@AEAAAEAV01@_KV<lambda_65e615be2a453ca0576c979606f46740>@@PEBD_K@Z
	??$_Reallocate_grow_by@V<lambda_9013ee9e23efe4882b67eff5b0ecf103>@@$$V@?$basic_string@DU?$char_traits@D@std@@V?$allocator@D@2@@std@@AEAAAEAV01@_KV<lambda_9013ee9e23efe4882b67eff5b0ecf103>@@@Z
	??$_Refancy@PEBD$0A@@std@@YAPEBDPEBD@Z
	??$_Refancy@PEB_W$0A@@std@@YAPEB_WPEB_W@Z
	??$_Uninitialized_copy@PEAEV?$allocator@E@std@@@std@@YAPEAEQEAE0PEAEAEAV?$allocator@E@0@@Z
	??$_Uninitialized_move@PEAEV?$allocator@E@std@@@std@@YAPEAEQEAE0PEAEAEAV?$allocator@E@0@@Z
	??$_Uninitialized_move@PEAUPortInfo@serial@@V?$allocator@UPortInfo@serial@@@std@@@std@@YAPEAUPortInfo@serial@@QEAU12@0PEAU12@AEAV?$allocator@UPortInfo@serial@@@0@@Z
	??$_Uninitialized_move@PEAV?$basic_string@DU?$char_traits@D@std@@V?$allocator@D@2@@std@@V?$allocator@V?$basic_string@DU?$char_traits@D@std@@V?$allocator@D@2@@std@@@2@@std@@YAPEAV?$basic_string@DU?$char_traits@D@std@@V?$allocator@D@2@@0@QEAV10@0PEAV10@AEAV?$allocator@V?$basic_string@DU?$char_traits@D@std@@V?$allocator@D@2@@std@@@0@@Z
	??0?$basic_string@DU?$char_traits@D@std@@V?$allocator@D@2@@std@@QEAA@AEBV01@@Z
	??0?$basic_string@DU?$char_traits@D@std@@V?$allocator@D@2@@std@@QEAA@QEBD@Z
	??0?$basic_stringstream@DU?$char_traits@D@std@@V?$allocator@D@2@@std@@QEAA@XZ
	??0IOException@serial@@QEAA@AEBV01@@Z
	??0IOException@serial@@QEAA@V?$basic_string@DU?$char_traits@D@std@@V?$allocator@D@2@@std@@HPEBD@Z
	??0PortNotOpenedException@serial@@QEAA@AEBV01@@Z
	??0PortNotOpenedException@serial@@QEAA@PEBD@Z
	??0Serial@serial@@QEAA@AEBV?$basic_string@DU?$char_traits@D@std@@V?$allocator@D@2@@std@@IUTimeout@1@W4bytesize_t@1@W4parity_t@1@W4stopbits_t@1@W4flowcontrol_t@1@@Z
	??0SerialException@serial@@QEAA@AEBV01@@Z
	??0SerialException@serial@@QEAA@PEBD@Z
	??0SerialImpl@Serial@serial@@QEAA@AEBV?$basic_string@DU?$char_traits@D@std@@V?$allocator@D@2@@std@@KW4bytesize_t@2@W4parity_t@2@W4stopbits_t@2@W4flowcontrol_t@2@@Z
	??0bad_alloc@std@@QEAA@AEBV01@@Z
	??0bad_array_new_length@std@@QEAA@AEBV01@@Z
	??0bad_array_new_length@std@@QEAA@XZ
	??0exception@std@@QEAA@AEBV01@@Z
	??0invalid_argument@std@@QEAA@AEBV01@@Z
	??0invalid_argument@std@@QEAA@PEBD@Z
	??0logic_error@std@@QEAA@AEBV01@@Z
	??1?$_Tidy_deallocate_guard@V?$basic_string@DU?$char_traits@D@std@@V?$allocator@D@2@@std@@@std@@QEAA@XZ
	??1?$_Tidy_deallocate_guard@V?$basic_string@_WU?$char_traits@_W@std@@V?$allocator@_W@2@@std@@@std@@QEAA@XZ
	??1?$basic_string@DU?$char_traits@D@std@@V?$allocator@D@2@@std@@QEAA@XZ
	??1?$basic_string@_WU?$char_traits@_W@std@@V?$allocator@_W@2@@std@@QEAA@XZ
	??1?$basic_stringbuf@DU?$char_traits@D@std@@V?$allocator@D@2@@std@@UEAA@XZ
	??1?$basic_stringstream@DU?$char_traits@D@std@@V?$allocator@D@2@@std@@UEAA@XZ
	??1?$vector@UPortInfo@serial@@V?$allocator@UPortInfo@serial@@@std@@@std@@QEAA@XZ
	??1?$vector@V?$basic_string@DU?$char_traits@D@std@@V?$allocator@D@2@@std@@V?$allocator@V?$basic_string@DU?$char_traits@D@std@@V?$allocator@D@2@@std@@@2@@std@@QEAA@XZ
	??1IOException@serial@@UEAA@XZ
	??1PortInfo@serial@@QEAA@XZ
	??1PortNotOpenedException@serial@@UEAA@XZ
	??1ScopedReadLock@Serial@serial@@QEAA@XZ
	??1ScopedWriteLock@Serial@serial@@QEAA@XZ
	??1Serial@serial@@UEAA@XZ
	??1SerialException@serial@@UEAA@XZ
	??1SerialImpl@Serial@serial@@UEAA@XZ
	??1_Sentry_base@?$basic_ostream@DU?$char_traits@D@std@@@std@@QEAA@XZ
	??1bad_array_new_length@std@@UEAA@XZ
	??1exception@std@@UEAA@XZ
	??1invalid_argument@std@@UEAA@XZ
	??1sentry@?$basic_ostream@DU?$char_traits@D@std@@@std@@QEAA@XZ
	??_D?$basic_stringstream@DU?$char_traits@D@std@@V?$allocator@D@2@@std@@QEAAXXZ
	??__Fwindows_com_port_prefix@?1??_prefix_port_if_needed@@YA?AV?$basic_string@_WU?$char_traits@_W@std@@V?$allocator@_W@2@@std@@AEBV12@@Z@YAXXZ
	?_Destroy@?$vector@UPortInfo@serial@@V?$allocator@UPortInfo@serial@@@std@@@std@@AEAAXPEAUPortInfo@serial@@0@Z
	?_Destroy@?$vector@V?$basic_string@DU?$char_traits@D@std@@V?$allocator@D@2@@std@@V?$allocator@V?$basic_string@DU?$char_traits@D@std@@V?$allocator@D@2@@std@@@2@@std@@AEAAXPEAV?$basic_string@DU?$char_traits@D@std@@V?$allocator@D@2@@2@0@Z
	?_Getal@?$vector@EV?$allocator@E@std@@@std@@AEAAAEAV?$allocator@E@2@XZ
	?_Throw_bad_array_new_length@std@@YAXXZ
	?_Tidy_deallocate@?$basic_string@DU?$char_traits@D@std@@V?$allocator@D@2@@std@@AEAAXXZ
	?_Tidy_deallocate@?$basic_string@_WU?$char_traits@_W@std@@V?$allocator@_W@2@@std@@AEAAXXZ
	?_Umove@?$vector@EV?$allocator@E@std@@@std@@AEAAPEAEPEAE00@Z
	?_Xlen_string@std@@YAXXZ
	?_Xlength@?$vector@EV?$allocator@E@std@@@std@@CAXXZ
	?_Xlength@?$vector@UPortInfo@serial@@V?$allocator@UPortInfo@serial@@@std@@@std@@CAXXZ
	?_Xlength@?$vector@V?$basic_string@DU?$char_traits@D@std@@V?$allocator@D@2@@std@@V?$allocator@V?$basic_string@DU?$char_traits@D@std@@V?$allocator@D@2@@std@@@2@@std@@CAXXZ
	?_prefix_port_if_needed@@YA?AV?$basic_string@_WU?$char_traits@_W@std@@V?$allocator@_W@2@@std@@AEBV12@@Z
	?allocate@?$allocator@D@std@@QEAAPEAD_K@Z
	?allocate@?$allocator@_W@std@@QEAAPEA_W_K@Z
	?append@?$basic_string@DU?$char_traits@D@std@@V?$allocator@D@2@@std@@QEAAAEAV12@QEBD_K@Z
	?assign@?$basic_string@DU?$char_traits@D@std@@V?$allocator@D@2@@std@@QEAAAEAV12@QEBD_K@Z
	?assign@?$basic_string@DU?$char_traits@D@std@@V?$allocator@D@2@@std@@QEAAAEAV12@_KD@Z
	?assign@?$basic_string@_WU?$char_traits@_W@std@@V?$allocator@_W@2@@std@@QEAAAEAV12@QEB_W_K@Z
	?available@Serial@serial@@QEAA_KXZ
	?available@SerialImpl@Serial@serial@@QEAA_KXZ
	?c_str@?$basic_string@DU?$char_traits@D@std@@V?$allocator@D@2@@std@@QEBAPEBDXZ
	?close@Serial@serial@@QEAAXXZ
	?close@SerialImpl@Serial@serial@@QEAAXXZ
	?deallocate@?$allocator@D@std@@QEAAXQEAD_K@Z
	?deallocate@?$allocator@E@std@@QEAAXQEAE_K@Z
	?deallocate@?$allocator@UPortInfo@serial@@@std@@QEAAXQEAUPortInfo@serial@@_K@Z
	?deallocate@?$allocator@V?$basic_string@DU?$char_traits@D@std@@V?$allocator@D@2@@std@@@std@@QEAAXQEAV?$basic_string@DU?$char_traits@D@std@@V?$allocator@D@2@@2@_K@Z
	?flush@Serial@serial@@QEAAXXZ
	?flush@SerialImpl@Serial@serial@@QEAAXXZ
	?flushInput@Serial@serial@@QEAAXXZ
	?flushInput@SerialImpl@Serial@serial@@QEAAXXZ
	?flushOutput@Serial@serial@@QEAAXXZ
	?flushOutput@SerialImpl@Serial@serial@@QEAAXXZ
	?getBaudrate@Serial@serial@@QEBAIXZ
	?getBaudrate@SerialImpl@Serial@serial@@QEBAKXZ
	?getBytesize@Serial@serial@@QEBA?AW4bytesize_t@2@XZ
	?getBytesize@SerialImpl@Serial@serial@@QEBA?AW4bytesize_t@3@XZ
	?getCD@Serial@serial@@QEAA_NXZ
	?getCD@SerialImpl@Serial@serial@@QEAA_NXZ
	?getCTS@Serial@serial@@QEAA_NXZ
	?getCTS@SerialImpl@Serial@serial@@QEAA_NXZ
	?getDSR@Serial@serial@@QEAA_NXZ
	?getDSR@SerialImpl@Serial@serial@@QEAA_NXZ
	?getFlowcontrol@Serial@serial@@QEBA?AW4flowcontrol_t@2@XZ
	?getFlowcontrol@SerialImpl@Serial@serial@@QEBA?AW4flowcontrol_t@3@XZ
	?getParity@Serial@serial@@QEBA?AW4parity_t@2@XZ
	?getParity@SerialImpl@Serial@serial@@QEBA?AW4parity_t@3@XZ
	?getPort@Serial@serial@@QEBA?AV?$basic_string@DU?$char_traits@D@std@@V?$allocator@D@2@@std@@XZ
	?getPort@SerialImpl@Serial@serial@@QEBA?AV?$basic_string@DU?$char_traits@D@std@@V?$allocator@D@2@@std@@XZ
	?getRI@Serial@serial@@QEAA_NXZ
	?getRI@SerialImpl@Serial@serial@@QEAA_NXZ
	?getStopbits@Serial@serial@@QEBA?AW4stopbits_t@2@XZ
	?getStopbits@SerialImpl@Serial@serial@@QEBA?AW4stopbits_t@3@XZ
	?getTimeout@Serial@serial@@QEBA?AUTimeout@2@XZ
	?getTimeout@SerialImpl@Serial@serial@@QEBA?AUTimeout@3@XZ
	?isOpen@Serial@serial@@QEBA_NXZ
	?isOpen@SerialImpl@Serial@serial@@QEBA_NXZ
	?list_ports@serial@@YA?AV?$vector@UPortInfo@serial@@V?$allocator@UPortInfo@serial@@@std@@@std@@XZ
	?open@Serial@serial@@QEAAXXZ
	?open@SerialImpl@Serial@serial@@QEAAXXZ
	?overflow@?$basic_stringbuf@DU?$char_traits@D@std@@V?$allocator@D@2@@std@@MEAAHH@Z
	?pbackfail@?$basic_stringbuf@DU?$char_traits@D@std@@V?$allocator@D@2@@std@@MEAAHH@Z
	?read@Serial@serial@@QEAA?AV?$basic_string@DU?$char_traits@D@std@@V?$allocator@D@2@@std@@_K@Z
	?read@Serial@serial@@QEAA_KAEAV?$basic_string@DU?$char_traits@D@std@@V?$allocator@D@2@@std@@_K@Z
	?read@Serial@serial@@QEAA_KAEAV?$vector@EV?$allocator@E@std@@@std@@_K@Z
	?read@Serial@serial@@QEAA_KPEAE_K@Z
	?read@SerialImpl@Serial@serial@@QEAA_KPEAE_K@Z
	?readLock@SerialImpl@Serial@serial@@QEAAXXZ
	?readUnlock@SerialImpl@Serial@serial@@QEAAXXZ
	?read_@Serial@serial@@AEAA_KPEAE_K@Z
	?readline@Serial@serial@@QEAA?AV?$basic_string@DU?$char_traits@D@std@@V?$allocator@D@2@@std@@_KV34@@Z
	?readline@Serial@serial@@QEAA_KAEAV?$basic_string@DU?$char_traits@D@std@@V?$allocator@D@2@@std@@_KV34@@Z
	?readlines@Serial@serial@@QEAA?AV?$vector@V?$basic_string@DU?$char_traits@D@std@@V?$allocator@D@2@@std@@V?$allocator@V?$basic_string@DU?$char_traits@D@std@@V?$allocator@D@2@@std@@@2@@std@@_KV?$basic_string@DU?$char_traits@D@std@@V?$allocator@D@2@@4@@Z
	?reconfigurePort@SerialImpl@Serial@serial@@IEAAXXZ
	?reserve@?$basic_string@_WU?$char_traits@_W@std@@V?$allocator@_W@2@@std@@QEAAX_K@Z
	?seekoff@?$basic_stringbuf@DU?$char_traits@D@std@@V?$allocator@D@2@@std@@MEAA?AV?$fpos@U_Mbstatet@@@2@_JHH@Z
	?seekpos@?$basic_stringbuf@DU?$char_traits@D@std@@V?$allocator@D@2@@std@@MEAA?AV?$fpos@U_Mbstatet@@@2@V32@H@Z
	?sendBreak@Serial@serial@@QEAAXH@Z
	?sendBreak@SerialImpl@Serial@serial@@QEAAXH@Z
	?setBaudrate@Serial@serial@@QEAAXI@Z
	?setBaudrate@SerialImpl@Serial@serial@@QEAAXK@Z
	?setBreak@Serial@serial@@QEAAX_N@Z
	?setBreak@SerialImpl@Serial@serial@@QEAAX_N@Z
	?setBytesize@Serial@serial@@QEAAXW4bytesize_t@2@@Z
	?setBytesize@SerialImpl@Serial@serial@@QEAAXW4bytesize_t@3@@Z
	?setDTR@Serial@serial@@QEAAX_N@Z
	?setDTR@SerialImpl@Serial@serial@@QEAAX_N@Z
	?setFlowcontrol@Serial@serial@@QEAAXW4flowcontrol_t@2@@Z
	?setFlowcontrol@SerialImpl@Serial@serial@@QEAAXW4flowcontrol_t@3@@Z
	?setParity@Serial@serial@@QEAAXW4parity_t@2@@Z
	?setParity@SerialImpl@Serial@serial@@QEAAXW4parity_t@3@@Z
	?setPort@Serial@serial@@QEAAXAEBV?$basic_string@DU?$char_traits@D@std@@V?$allocator@D@2@@std@@@Z
	?setPort@SerialImpl@Serial@serial@@QEAAXAEBV?$basic_string@DU?$char_traits@D@std@@V?$allocator@D@2@@std@@@Z
	?setRTS@Serial@serial@@QEAAX_N@Z
	?setRTS@SerialImpl@Serial@serial@@QEAAX_N@Z
	?setStopbits@Serial@serial@@QEAAXW4stopbits_t@2@@Z
	?setStopbits@SerialImpl@Serial@serial@@QEAAXW4stopbits_t@3@@Z
	?setTimeout@Serial@serial@@QEAAXAEAUTimeout@2@@Z
	?setTimeout@SerialImpl@Serial@serial@@QEAAXAEAUTimeout@3@@Z
	?str@?$basic_stringstream@DU?$char_traits@D@std@@V?$allocator@D@2@@std@@QEBA?AV?$basic_string@DU?$char_traits@D@std@@V?$allocator@D@2@@2@XZ
	?underflow@?$basic_stringbuf@DU?$char_traits@D@std@@V?$allocator@D@2@@std@@MEAAHXZ
	?utf8_encode@@YA?AV?$basic_string@DU?$char_traits@D@std@@V?$allocator@D@2@@std@@AEBV?$basic_string@_WU?$char_traits@_W@std@@V?$allocator@_W@2@@2@@Z
	?waitByteTimes@Serial@serial@@QEAAX_K@Z
	?waitByteTimes@SerialImpl@Serial@serial@@QEAAX_K@Z
	?waitForChange@Serial@serial@@QEAA_NXZ
	?waitForChange@SerialImpl@Serial@serial@@QEAA_NXZ
	?waitReadable@Serial@serial@@QEAA_NXZ
	?waitReadable@SerialImpl@Serial@serial@@QEAA_NI@Z
	?what@IOException@serial@@UEBAPEBDXZ
	?what@PortNotOpenedException@serial@@UEBAPEBDXZ
	?what@SerialException@serial@@UEBAPEBDXZ
	?what@exception@std@@UEBAPEBDXZ
	?write@Serial@serial@@QEAA_KAEBV?$basic_string@DU?$char_traits@D@std@@V?$allocator@D@2@@std@@@Z
	?write@Serial@serial@@QEAA_KAEBV?$vector@EV?$allocator@E@std@@@std@@@Z
	?write@Serial@serial@@QEAA_KPEBE_K@Z
	?write@SerialImpl@Serial@serial@@QEAA_KPEBE_K@Z
	?writeLock@SerialImpl@Serial@serial@@QEAAXXZ
	?writeUnlock@SerialImpl@Serial@serial@@QEAAXXZ
	?write_@Serial@serial@@AEAA_KPEBE_K@Z
